target datalayout = "e-m:e-p270:32:32-p271:32:32-p272:64:64-i64:64-i128:128-f80:128-n8:16:32:64-S128"
target triple = "x86_64-pc-linux-gnu"

%struct.ctl_node_s = type { i8 }
%struct.ctl_named_node_s = type { %struct.ctl_node_s, ptr, i64, ptr, ptr }
%struct.ctl_indexed_node_s = type { %struct.ctl_node_s, ptr }

; Function Attrs: nounwind uwtable
define internal ptr @ctl_indexed_node(ptr noundef %0) #0 {
  %2 = alloca ptr, align 8
  store ptr %0, ptr %2, align 8, !tbaa !160
  %3 = load ptr, ptr %2, align 8, !tbaa !160
  %4 = getelementptr inbounds nuw %struct.ctl_node_s, ptr %3, i32 0, i32 0
  %5 = load i8, ptr %4, align 1, !tbaa !161, !range !17, !noundef !18
  %6 = trunc i8 %5 to i1
  br i1 %6, label %9, label %7

7:                                                ; preds = %1
  %8 = load ptr, ptr %2, align 8, !tbaa !160
  br label %10

9:                                                ; preds = %1
  br label %10

10:                                               ; preds = %9, %7
  %11 = phi ptr [ %8, %7 ], [ null, %9 ]
  ret ptr %11
}

; Function Attrs: nounwind uwtable
define internal ptr @ctl_named_children(ptr noundef %0, i64 noundef %1) #0 {
  %3 = alloca ptr, align 8
  %4 = alloca i64, align 8
  %5 = alloca ptr, align 8
  store ptr %0, ptr %3, align 8, !tbaa !21
  store i64 %1, ptr %4, align 8, !tbaa !13
  call void @llvm.lifetime.start.p0(i64 8, ptr %5) #13
  %6 = load ptr, ptr %3, align 8, !tbaa !21
  %7 = getelementptr inbounds nuw %struct.ctl_named_node_s, ptr %6, i32 0, i32 3
  %8 = load ptr, ptr %7, align 8, !tbaa !45
  %9 = call ptr @ctl_named_node(ptr noundef %8)
  store ptr %9, ptr %5, align 8, !tbaa !21
  %10 = load ptr, ptr %5, align 8, !tbaa !21
  %11 = icmp ne ptr %10, null
  br i1 %11, label %12, label %16

12:                                               ; preds = %2
  %13 = load ptr, ptr %5, align 8, !tbaa !21
  %14 = load i64, ptr %4, align 8, !tbaa !13
  %15 = getelementptr inbounds nuw %struct.ctl_named_node_s, ptr %13, i64 %14
  br label %17

16:                                               ; preds = %2
  br label %17

17:                                               ; preds = %16, %12
  %18 = phi ptr [ %15, %12 ], [ null, %16 ]
  call void @llvm.lifetime.end.p0(i64 8, ptr %5) #13
  ret ptr %18
}

; Function Attrs: nounwind uwtable
define internal ptr @ctl_named_node(ptr noundef %0) #0 {
  %2 = alloca ptr, align 8
  store ptr %0, ptr %2, align 8, !tbaa !160
  %3 = load ptr, ptr %2, align 8, !tbaa !160
  %4 = getelementptr inbounds nuw %struct.ctl_node_s, ptr %3, i32 0, i32 0
  %5 = load i8, ptr %4, align 1, !tbaa !161, !range !17, !noundef !18
  %6 = trunc i8 %5 to i1
  br i1 %6, label %7, label %9

7:                                                ; preds = %1
  %8 = load ptr, ptr %2, align 8, !tbaa !160
  br label %10

9:                                                ; preds = %1
  br label %10

10:                                               ; preds = %9, %7
  %11 = phi ptr [ %8, %7 ], [ null, %9 ]
  ret ptr %11
}

; Function Attrs: nounwind uwtable
define internal i32 @ctl_lookup(ptr noundef %0, ptr noundef %1, ptr noundef %2, ptr noundef %3, ptr noundef %4, ptr noundef %5) #0 {
  %7 = alloca i32, align 4
  %8 = alloca ptr, align 8
  %9 = alloca ptr, align 8
  %10 = alloca ptr, align 8
  %11 = alloca ptr, align 8
  %12 = alloca ptr, align 8
  %13 = alloca ptr, align 8
  %14 = alloca i32, align 4
  %15 = alloca ptr, align 8
  %16 = alloca ptr, align 8
  %17 = alloca ptr, align 8
  %18 = alloca i64, align 8
  %19 = alloca i64, align 8
  %20 = alloca i64, align 8
  %21 = alloca ptr, align 8
  %22 = alloca ptr, align 8
  %23 = alloca ptr, align 8
  %24 = alloca i32, align 4
  %25 = alloca i64, align 8
  %26 = alloca ptr, align 8
  store ptr %0, ptr %8, align 8, !tbaa !27
  store ptr %1, ptr %9, align 8, !tbaa !21
  store ptr %2, ptr %10, align 8, !tbaa !8
  store ptr %3, ptr %11, align 8, !tbaa !43
  store ptr %4, ptr %12, align 8, !tbaa !11
  store ptr %5, ptr %13, align 8, !tbaa !11
  call void @llvm.lifetime.start.p0(i64 4, ptr %14) #13
  call void @llvm.lifetime.start.p0(i64 8, ptr %15) #13
  call void @llvm.lifetime.start.p0(i64 8, ptr %16) #13
  call void @llvm.lifetime.start.p0(i64 8, ptr %17) #13
  call void @llvm.lifetime.start.p0(i64 8, ptr %18) #13
  call void @llvm.lifetime.start.p0(i64 8, ptr %19) #13
  call void @llvm.lifetime.start.p0(i64 8, ptr %20) #13
  call void @llvm.lifetime.start.p0(i64 8, ptr %21) #13
  %27 = load ptr, ptr %10, align 8, !tbaa !8
  store ptr %27, ptr %15, align 8, !tbaa !8
  %28 = load ptr, ptr %15, align 8, !tbaa !8
  %29 = call ptr @strchr(ptr noundef %28, i32 noundef 46) #14
  store ptr %29, ptr %16, align 8, !tbaa !8
  %30 = icmp ne ptr %29, null
  br i1 %30, label %31, label %33

31:                                               ; preds = %6
  %32 = load ptr, ptr %16, align 8, !tbaa !8
  br label %36

33:                                               ; preds = %6
  %34 = load ptr, ptr %15, align 8, !tbaa !8
  %35 = call ptr @strchr(ptr noundef %34, i32 noundef 0) #14
  br label %36

36:                                               ; preds = %33, %31
  %37 = phi ptr [ %32, %31 ], [ %35, %33 ]
  store ptr %37, ptr %17, align 8, !tbaa !8
  %38 = load ptr, ptr %17, align 8, !tbaa !8
  %39 = ptrtoint ptr %38 to i64
  %40 = load ptr, ptr %15, align 8, !tbaa !8
  %41 = ptrtoint ptr %40 to i64
  %42 = sub i64 %39, %41
  store i64 %42, ptr %18, align 8, !tbaa !13
  %43 = load i64, ptr %18, align 8, !tbaa !13
  %44 = icmp eq i64 %43, 0
  br i1 %44, label %45, label %46

45:                                               ; preds = %36
  store i32 2, ptr %14, align 4, !tbaa !19
  br label %195

46:                                               ; preds = %36
  %47 = load ptr, ptr %9, align 8, !tbaa !21
  store ptr %47, ptr %21, align 8, !tbaa !21
  store i64 0, ptr %19, align 8, !tbaa !13
  br label %48

48:                                               ; preds = %185, %46
  %49 = load i64, ptr %19, align 8, !tbaa !13
  %50 = load ptr, ptr %13, align 8, !tbaa !11
  %51 = load i64, ptr %50, align 8, !tbaa !13
  %52 = icmp ult i64 %49, %51
  br i1 %52, label %53, label %188

53:                                               ; preds = %48
  br label %54

54:                                               ; preds = %53
  br label %55

55:                                               ; preds = %54
  br label %56

56:                                               ; preds = %55
  br label %57

57:                                               ; preds = %56
  br label %58

58:                                               ; preds = %57
  br label %59

59:                                               ; preds = %58
  %60 = load ptr, ptr %21, align 8, !tbaa !21
  %61 = getelementptr inbounds nuw %struct.ctl_named_node_s, ptr %60, i32 0, i32 3
  %62 = load ptr, ptr %61, align 8, !tbaa !45
  %63 = call ptr @ctl_named_node(ptr noundef %62)
  %64 = icmp ne ptr %63, null
  br i1 %64, label %65, label %113

65:                                               ; preds = %59
  call void @llvm.lifetime.start.p0(i64 8, ptr %22) #13
  %66 = load ptr, ptr %21, align 8, !tbaa !21
  store ptr %66, ptr %22, align 8, !tbaa !21
  store i64 0, ptr %20, align 8, !tbaa !13
  br label %67

67:                                               ; preds = %101, %65
  %68 = load i64, ptr %20, align 8, !tbaa !13
  %69 = load ptr, ptr %21, align 8, !tbaa !21
  %70 = getelementptr inbounds nuw %struct.ctl_named_node_s, ptr %69, i32 0, i32 2
  %71 = load i64, ptr %70, align 8, !tbaa !46
  %72 = icmp ult i64 %68, %71
  br i1 %72, label %73, label %104

73:                                               ; preds = %67
  call void @llvm.lifetime.start.p0(i64 8, ptr %23) #13
  %74 = load ptr, ptr %21, align 8, !tbaa !21
  %75 = load i64, ptr %20, align 8, !tbaa !13
  %76 = call ptr @ctl_named_children(ptr noundef %74, i64 noundef %75)
  store ptr %76, ptr %23, align 8, !tbaa !21
  %77 = load ptr, ptr %23, align 8, !tbaa !21
  %78 = getelementptr inbounds nuw %struct.ctl_named_node_s, ptr %77, i32 0, i32 1
  %79 = load ptr, ptr %78, align 8, !tbaa !47
  %80 = call i64 @strlen(ptr noundef %79) #14
  %81 = load i64, ptr %18, align 8, !tbaa !13
  %82 = icmp eq i64 %80, %81
  br i1 %82, label %83, label %97

83:                                               ; preds = %73
  %84 = load ptr, ptr %15, align 8, !tbaa !8
  %85 = load ptr, ptr %23, align 8, !tbaa !21
  %86 = getelementptr inbounds nuw %struct.ctl_named_node_s, ptr %85, i32 0, i32 1
  %87 = load ptr, ptr %86, align 8, !tbaa !47
  %88 = load i64, ptr %18, align 8, !tbaa !13
  %89 = call i32 @strncmp(ptr noundef %84, ptr noundef %87, i64 noundef %88) #14
  %90 = icmp eq i32 %89, 0
  br i1 %90, label %91, label %97

91:                                               ; preds = %83
  %92 = load ptr, ptr %23, align 8, !tbaa !21
  store ptr %92, ptr %21, align 8, !tbaa !21
  %93 = load i64, ptr %20, align 8, !tbaa !13
  %94 = load ptr, ptr %12, align 8, !tbaa !11
  %95 = load i64, ptr %19, align 8, !tbaa !13
  %96 = getelementptr inbounds nuw i64, ptr %94, i64 %95
  store i64 %93, ptr %96, align 8, !tbaa !13
  store i32 10, ptr %24, align 4
  br label %98

97:                                               ; preds = %83, %73
  store i32 0, ptr %24, align 4
  br label %98

98:                                               ; preds = %97, %91
  call void @llvm.lifetime.end.p0(i64 8, ptr %23) #13
  %99 = load i32, ptr %24, align 4
  switch i32 %99, label %199 [
    i32 0, label %100
    i32 10, label %104
  ]

100:                                              ; preds = %98
  br label %101

101:                                              ; preds = %100
  %102 = load i64, ptr %20, align 8, !tbaa !13
  %103 = add i64 %102, 1
  store i64 %103, ptr %20, align 8, !tbaa !13
  br label %67

104:                                              ; preds = %98, %67
  %105 = load ptr, ptr %21, align 8, !tbaa !21
  %106 = load ptr, ptr %22, align 8, !tbaa !21
  %107 = icmp eq ptr %105, %106
  br i1 %107, label %108, label %109

108:                                              ; preds = %104
  store i32 2, ptr %14, align 4, !tbaa !19
  store i32 2, ptr %24, align 4
  br label %110

109:                                              ; preds = %104
  store i32 0, ptr %24, align 4
  br label %110

110:                                              ; preds = %108, %109
  call void @llvm.lifetime.end.p0(i64 8, ptr %22) #13
  %111 = load i32, ptr %24, align 4
  switch i32 %111, label %197 [
    i32 0, label %112
    i32 2, label %195
  ]

112:                                              ; preds = %110
  br label %147

113:                                              ; preds = %59
  call void @llvm.lifetime.start.p0(i64 8, ptr %25) #13
  call void @llvm.lifetime.start.p0(i64 8, ptr %26) #13
  %114 = load ptr, ptr %15, align 8, !tbaa !8
  %115 = call i64 @duckdb_je_malloc_strtoumax(ptr noundef %114, ptr noundef null, i32 noundef 10)
  store i64 %115, ptr %25, align 8, !tbaa !13
  %116 = load i64, ptr %25, align 8, !tbaa !13
  %117 = icmp eq i64 %116, -1
  br i1 %117, label %121, label %118

118:                                              ; preds = %113
  %119 = load i64, ptr %25, align 8, !tbaa !13
  %120 = icmp ugt i64 %119, -1
  br i1 %120, label %121, label %122

121:                                              ; preds = %118, %113
  store i32 2, ptr %14, align 4, !tbaa !19
  store i32 2, ptr %24, align 4
  br label %144

122:                                              ; preds = %118
  %123 = load ptr, ptr %21, align 8, !tbaa !21
  %124 = getelementptr inbounds nuw %struct.ctl_named_node_s, ptr %123, i32 0, i32 3
  %125 = load ptr, ptr %124, align 8, !tbaa !45
  %126 = call ptr @ctl_indexed_node(ptr noundef %125)
  store ptr %126, ptr %26, align 8, !tbaa !48
  %127 = load ptr, ptr %26, align 8, !tbaa !48
  %128 = getelementptr inbounds nuw %struct.ctl_indexed_node_s, ptr %127, i32 0, i32 1
  %129 = load ptr, ptr %128, align 8, !tbaa !50
  %130 = load ptr, ptr %8, align 8, !tbaa !27
  %131 = load ptr, ptr %12, align 8, !tbaa !11
  %132 = load ptr, ptr %13, align 8, !tbaa !11
  %133 = load i64, ptr %132, align 8, !tbaa !13
  %134 = load i64, ptr %25, align 8, !tbaa !13
  %135 = call ptr %129(ptr noundef %130, ptr noundef %131, i64 noundef %133, i64 noundef %134)
  store ptr %135, ptr %21, align 8, !tbaa !21
  %136 = load ptr, ptr %21, align 8, !tbaa !21
  %137 = icmp eq ptr %136, null
  br i1 %137, label %138, label %139

138:                                              ; preds = %122
  store i32 2, ptr %14, align 4, !tbaa !19
  store i32 2, ptr %24, align 4
  br label %144

139:                                              ; preds = %122
  %140 = load i64, ptr %25, align 8, !tbaa !13
  %141 = load ptr, ptr %12, align 8, !tbaa !11
  %142 = load i64, ptr %19, align 8, !tbaa !13
  %143 = getelementptr inbounds nuw i64, ptr %141, i64 %142
  store i64 %140, ptr %143, align 8, !tbaa !13
  store i32 0, ptr %24, align 4
  br label %144

144:                                              ; preds = %138, %121, %139
  call void @llvm.lifetime.end.p0(i64 8, ptr %26) #13
  call void @llvm.lifetime.end.p0(i64 8, ptr %25) #13
  %145 = load i32, ptr %24, align 4
  switch i32 %145, label %197 [
    i32 0, label %146
    i32 2, label %195
  ]

146:                                              ; preds = %144
  br label %147

147:                                              ; preds = %146, %112
  %148 = load ptr, ptr %21, align 8, !tbaa !21
  %149 = getelementptr inbounds nuw %struct.ctl_named_node_s, ptr %148, i32 0, i32 4
  %150 = load ptr, ptr %149, align 8, !tbaa !23
  %151 = icmp ne ptr %150, null
  br i1 %151, label %157, label %152

152:                                              ; preds = %147
  %153 = load ptr, ptr %17, align 8, !tbaa !8
  %154 = load i8, ptr %153, align 1, !tbaa !52
  %155 = sext i8 %154 to i32
  %156 = icmp eq i32 %155, 0
  br i1 %156, label %157, label %167

157:                                              ; preds = %152, %147
  %158 = load ptr, ptr %17, align 8, !tbaa !8
  %159 = load i8, ptr %158, align 1, !tbaa !52
  %160 = sext i8 %159 to i32
  %161 = icmp ne i32 %160, 0
  br i1 %161, label %162, label %163

162:                                              ; preds = %157
  store i32 2, ptr %14, align 4, !tbaa !19
  br label %195

163:                                              ; preds = %157
  %164 = load i64, ptr %19, align 8, !tbaa !13
  %165 = add i64 %164, 1
  %166 = load ptr, ptr %13, align 8, !tbaa !11
  store i64 %165, ptr %166, align 8, !tbaa !13
  br label %188

167:                                              ; preds = %152
  %168 = load ptr, ptr %17, align 8, !tbaa !8
  %169 = getelementptr inbounds i8, ptr %168, i64 1
  store ptr %169, ptr %15, align 8, !tbaa !8
  %170 = load ptr, ptr %15, align 8, !tbaa !8
  %171 = call ptr @strchr(ptr noundef %170, i32 noundef 46) #14
  store ptr %171, ptr %16, align 8, !tbaa !8
  %172 = icmp ne ptr %171, null
  br i1 %172, label %173, label %175

173:                                              ; preds = %167
  %174 = load ptr, ptr %16, align 8, !tbaa !8
  br label %178

175:                                              ; preds = %167
  %176 = load ptr, ptr %15, align 8, !tbaa !8
  %177 = call ptr @strchr(ptr noundef %176, i32 noundef 0) #14
  br label %178

178:                                              ; preds = %175, %173
  %179 = phi ptr [ %174, %173 ], [ %177, %175 ]
  store ptr %179, ptr %17, align 8, !tbaa !8
  %180 = load ptr, ptr %17, align 8, !tbaa !8
  %181 = ptrtoint ptr %180 to i64
  %182 = load ptr, ptr %15, align 8, !tbaa !8
  %183 = ptrtoint ptr %182 to i64
  %184 = sub i64 %181, %183
  store i64 %184, ptr %18, align 8, !tbaa !13
  br label %185

185:                                              ; preds = %178
  %186 = load i64, ptr %19, align 8, !tbaa !13
  %187 = add i64 %186, 1
  store i64 %187, ptr %19, align 8, !tbaa !13
  br label %48

188:                                              ; preds = %163, %48
  %189 = load ptr, ptr %11, align 8, !tbaa !43
  %190 = icmp ne ptr %189, null
  br i1 %190, label %191, label %194

191:                                              ; preds = %188
  %192 = load ptr, ptr %21, align 8, !tbaa !21
  %193 = load ptr, ptr %11, align 8, !tbaa !43
  store ptr %192, ptr %193, align 8, !tbaa !21
  br label %194

194:                                              ; preds = %191, %188
  store i32 0, ptr %14, align 4, !tbaa !19
  br label %195

195:                                              ; preds = %194, %144, %110, %162, %45
  %196 = load i32, ptr %14, align 4, !tbaa !19
  store i32 %196, ptr %7, align 4
  store i32 1, ptr %24, align 4
  br label %197

197:                                              ; preds = %195, %144, %110
  call void @llvm.lifetime.end.p0(i64 8, ptr %21) #13
  call void @llvm.lifetime.end.p0(i64 8, ptr %20) #13
  call void @llvm.lifetime.end.p0(i64 8, ptr %19) #13
  call void @llvm.lifetime.end.p0(i64 8, ptr %18) #13
  call void @llvm.lifetime.end.p0(i64 8, ptr %17) #13
  call void @llvm.lifetime.end.p0(i64 8, ptr %16) #13
  call void @llvm.lifetime.end.p0(i64 8, ptr %15) #13
  call void @llvm.lifetime.end.p0(i64 4, ptr %14) #13
  %198 = load i32, ptr %7, align 4
  ret i32 %198

199:                                              ; preds = %98
  unreachable
}