; Function Attrs: nounwind uwtable
define internal fastcc range(i32 0, 3) i32 @ctl_lookup(ptr noundef %0, ptr noundef %1, ptr noundef %2, ptr noundef writeonly captures(address_is_null) %3, ptr noundef %4, ptr noundef captures(none) %5) unnamed_addr #0 {
  %7 = tail call ptr @strchr(ptr noundef nonnull dereferenceable(1) %2, i32 noundef 46) #15
  %.not = icmp eq ptr %7, null
  br i1 %.not, label %8, label %9

8:                                                ; preds = %6
  %strlen = tail call i64 @strlen(ptr nonnull dereferenceable(1) %2)
  %strchr = getelementptr inbounds i8, ptr %2, i64 %strlen
  br label %9

9:                                                ; preds = %6, %8
  %10 = phi ptr [ %strchr, %8 ], [ %7, %6 ]
  %11 = ptrtoint ptr %10 to i64
  %12 = ptrtoint ptr %2 to i64
  %13 = sub i64 %11, %12
  %14 = icmp eq i64 %13, 0
  br i1 %14, label %.thread97, label %.preheader105

.preheader105:                                    ; preds = %9
  %15 = load i64, ptr %5, align 8, !tbaa !3
  %.not133 = icmp eq i64 %15, 0
  br i1 %.not133, label %.loopexit106, label %.lr.ph132

.lr.ph132:                                        ; preds = %.preheader105, %60
  %.065131 = phi ptr [ %57, %60 ], [ %2, %.preheader105 ]
  %.066129 = phi ptr [ %.5, %60 ], [ %1, %.preheader105 ]
  %.072128 = phi i64 [ %65, %60 ], [ 0, %.preheader105 ]
  %.073127 = phi i64 [ %64, %60 ], [ %13, %.preheader105 ]
  %.074126 = phi ptr [ %61, %60 ], [ %10, %.preheader105 ]
  %16 = getelementptr i8, ptr %.066129, i64 24
  %17 = load ptr, ptr %16, align 8, !tbaa !43
  %18 = load i8, ptr %17, align 1, !tbaa !44, !range !45, !noundef !46
  %19 = trunc nuw i8 %18 to i1
  br i1 %19, label %.preheader, label %33

.preheader:                                       ; preds = %.lr.ph132
  %20 = getelementptr inbounds nuw i8, ptr %.066129, i64 16
  %21 = load i64, ptr %20, align 8, !tbaa !47
  %.not134 = icmp eq i64 %21, 0
  br i1 %.not134, label %.thread97, label %.lr.ph.split

.lr.ph.split:                                     ; preds = %.preheader, %30
  %.071120 = phi i64 [ %31, %30 ], [ 0, %.preheader ]
  %22 = getelementptr inbounds nuw %struct.ctl_named_node_s, ptr %17, i64 %.071120
  %23 = getelementptr inbounds nuw i8, ptr %22, i64 8
  %24 = load ptr, ptr %23, align 8, !tbaa !48
  %25 = tail call i64 @strlen(ptr noundef nonnull dereferenceable(1) %24) #15
  %26 = icmp eq i64 %25, %.073127
  br i1 %26, label %27, label %30

27:                                               ; preds = %.lr.ph.split
  %28 = tail call i32 @strncmp(ptr noundef nonnull %.065131, ptr noundef nonnull %24, i64 noundef %.073127) #15
  %29 = icmp eq i32 %28, 0
  br i1 %29, label %.loopexit, label %30

30:                                               ; preds = %27, %.lr.ph.split
  %31 = add nuw i64 %.071120, 1
  %exitcond.not = icmp eq i64 %31, %21
  br i1 %exitcond.not, label %.thread97, label %.lr.ph.split

.loopexit:                                        ; preds = %27
  %32 = getelementptr inbounds nuw i64, ptr %4, i64 %.072128
  store i64 %.071120, ptr %32, align 8, !tbaa !3
  %.not104 = icmp eq ptr %22, %.066129
  br i1 %.not104, label %.thread97, label %48

33:                                               ; preds = %.lr.ph132
  %34 = tail call i64 @duckdb_je_malloc_strtoumax(ptr noundef nonnull %.065131, ptr noundef null, i32 noundef 10) #14
  %35 = icmp eq i64 %34, -1
  br i1 %35, label %.thread97, label %36

36:                                               ; preds = %33
  %37 = load ptr, ptr %16, align 8, !tbaa !43
  %38 = load i8, ptr %37, align 1, !tbaa !44, !range !45, !noundef !46
  %39 = trunc nuw i8 %38 to i1
  %40 = select i1 %39, ptr null, ptr %37
  %41 = getelementptr inbounds nuw i8, ptr %40, i64 8
  %42 = load ptr, ptr %41, align 8, !tbaa !49
  %43 = load i64, ptr %5, align 8, !tbaa !3
  %44 = tail call ptr %42(ptr noundef %0, ptr noundef %4, i64 noundef %43, i64 noundef %34) #14
  %45 = icmp eq ptr %44, null
  br i1 %45, label %.thread97, label %46

46:                                               ; preds = %36
  %47 = getelementptr inbounds nuw i64, ptr %4, i64 %.072128
  store i64 %34, ptr %47, align 8, !tbaa !3
  br label %48

48:                                               ; preds = %46, %.loopexit
  %.5 = phi ptr [ %22, %.loopexit ], [ %44, %46 ]
  %49 = getelementptr inbounds nuw i8, ptr %.5, i64 32
  %50 = load ptr, ptr %49, align 8, !tbaa !10
  %.not83 = icmp eq ptr %50, null
  %51 = load i8, ptr %.074126, align 1, !tbaa !51
  %52 = icmp eq i8 %51, 0
  br i1 %.not83, label %53, label %54

53:                                               ; preds = %48
  br i1 %52, label %.thread101, label %56

54:                                               ; preds = %48
  br i1 %52, label %.thread101, label %.thread97

.thread101:                                       ; preds = %53, %54
  %55 = add i64 %.072128, 1
  store i64 %55, ptr %5, align 8, !tbaa !3
  br label %.loopexit106

56:                                               ; preds = %53
  %57 = getelementptr inbounds nuw i8, ptr %.074126, i64 1
  %58 = tail call ptr @strchr(ptr noundef nonnull dereferenceable(1) %57, i32 noundef 46) #15
  %.not84 = icmp eq ptr %58, null
  br i1 %.not84, label %59, label %60

59:                                               ; preds = %56
  %strlen85 = tail call i64 @strlen(ptr nonnull dereferenceable(1) %57)
  %strchr86 = getelementptr inbounds i8, ptr %57, i64 %strlen85
  br label %60

60:                                               ; preds = %56, %59
  %61 = phi ptr [ %strchr86, %59 ], [ %58, %56 ]
  %62 = ptrtoint ptr %61 to i64
  %63 = ptrtoint ptr %57 to i64
  %64 = sub i64 %62, %63
  %65 = add nuw i64 %.072128, 1
  %66 = load i64, ptr %5, align 8, !tbaa !3
  %67 = icmp ult i64 %65, %66
  br i1 %67, label %.lr.ph132, label %.loopexit106

.loopexit106:                                     ; preds = %60, %.preheader105, %.thread101
  %.167 = phi ptr [ %.5, %.thread101 ], [ %1, %.preheader105 ], [ %.5, %60 ]
  %.not88 = icmp eq ptr %3, null
  br i1 %.not88, label %.thread97, label %68

68:                                               ; preds = %.loopexit106
  store ptr %.167, ptr %3, align 8, !tbaa !7
  br label %.thread97

.thread97:                                        ; preds = %.preheader, %36, %33, %.loopexit, %30, %9, %54, %68, %.loopexit106
  %.0 = phi i32 [ 2, %9 ], [ 2, %54 ], [ 0, %68 ], [ 0, %.loopexit106 ], [ 2, %30 ], [ 2, %.loopexit ], [ 2, %33 ], [ 2, %36 ], [ 2, %.preheader ]
  ret i32 %.0
}